target datalayout = "e-m:e-p270:32:32-p271:32:32-p272:64:64-i64:64-i128:128-f80:128-n8:16:32:64-S128"
target triple = "x86_64-pc-linux-gnu"

%class.XPhysicalMemory = type { %class.GrowableArrayCHeap }
%class.GrowableArrayCHeap = type { %class.GrowableArrayWithAllocator }
%class.GrowableArrayWithAllocator = type { %class.GrowableArrayView }
%class.GrowableArrayView = type { %class.GrowableArrayBase, ptr }
%class.GrowableArrayBase = type { i32, i32 }
%class.XPhysicalMemorySegment = type <{ i64, i64, i8, [7 x i8] }>
%class.XPhysicalMemoryManager = type { %class.XPhysicalMemoryBacking, %class.XMemoryManager }
%class.XPhysicalMemoryBacking = type <{ i32, [4 x i8], i64, i64, i64, i64, i8, [7 x i8] }>
%class.XMemoryManager = type { %class.XLock, %class.XList, %"struct.XMemoryManager::Callbacks" }
%class.XLock = type { %class.PlatformMutex }
%class.PlatformMutex = type { %union.pthread_mutex_t }
%union.pthread_mutex_t = type { %struct.__pthread_mutex_s }
%struct.__pthread_mutex_s = type { i32, i32, i32, i32, i32, i16, i16, %struct.__pthread_internal_list }
%struct.__pthread_internal_list = type { ptr, ptr }
%class.XList = type { %class.XListNode, i64 }
%class.XListNode = type { ptr, ptr }
%"struct.XMemoryManager::Callbacks" = type { ptr, ptr, ptr, ptr, ptr, ptr }

@_ZN11XLargePages6_stateE = external global i32, align 4
@_ZN5XNUMA8_enabledE = external global i8, align 1

; Function Attrs: mustprogress nounwind uwtable
define linkonce_odr hidden noundef nonnull align 8 dereferenceable(17) ptr @_ZNK17GrowableArrayViewI22XPhysicalMemorySegmentE2atEi(ptr noundef nonnull align 8 dereferenceable(16) %0, i32 noundef %1) #1 comdat align 2 {
  %3 = alloca ptr, align 8
  %4 = alloca i32, align 4
  store ptr %0, ptr %3, align 8
  store i32 %1, ptr %4, align 4
  %5 = load ptr, ptr %3, align 8
  %6 = getelementptr inbounds %class.GrowableArrayView, ptr %5, i32 0, i32 1
  %7 = load ptr, ptr %6, align 8
  %8 = load i32, ptr %4, align 4
  %9 = sext i32 %8 to i64
  %10 = getelementptr inbounds %class.XPhysicalMemorySegment, ptr %7, i64 %9
  ret ptr %10
}

; Function Attrs: mustprogress nounwind uwtable
define linkonce_odr hidden noundef i32 @_ZNK17GrowableArrayBase6lengthEv(ptr noundef nonnull align 4 dereferenceable(8) %0) #1 comdat align 2 {
  %2 = alloca ptr, align 8
  store ptr %0, ptr %2, align 8
  %3 = load ptr, ptr %2, align 8
  %4 = getelementptr inbounds %class.GrowableArrayBase, ptr %3, i32 0, i32 0
  %5 = load i32, ptr %4, align 4
  ret i32 %5
}

; Function Attrs: mustprogress nounwind uwtable
define linkonce_odr hidden noundef zeroext i1 @_ZN11XLargePages11is_explicitEv() #1 comdat align 2 {
  %1 = load i32, ptr @_ZN11XLargePages6_stateE, align 4
  %2 = icmp eq i32 %1, 1
  ret i1 %2
}

; Function Attrs: mustprogress nounwind uwtable
define linkonce_odr hidden noundef zeroext i1 @_ZN5XNUMA10is_enabledEv() #1 comdat align 2 {
  %1 = load i8, ptr @_ZN5XNUMA8_enabledE, align 1
  %2 = trunc i8 %1 to i1
  ret i1 %2
}

; Function Attrs: mustprogress nounwind uwtable
define linkonce_odr hidden noundef i64 @_ZNK22XPhysicalMemorySegment5startEv(ptr noundef nonnull align 8 dereferenceable(17) %0) #1 comdat align 2 {
  %2 = alloca ptr, align 8
  store ptr %0, ptr %2, align 8
  %3 = load ptr, ptr %2, align 8
  %4 = getelementptr inbounds %class.XPhysicalMemorySegment, ptr %3, i32 0, i32 0
  %5 = load i64, ptr %4, align 8
  ret i64 %5
}

; Function Attrs: mustprogress nounwind uwtable
define linkonce_odr hidden noundef i64 @_ZNK22XPhysicalMemorySegment4sizeEv(ptr noundef nonnull align 8 dereferenceable(17) %0) #1 comdat align 2 {
  %2 = alloca ptr, align 8
  store ptr %0, ptr %2, align 8
  %3 = load ptr, ptr %2, align 8
  %4 = getelementptr inbounds %class.XPhysicalMemorySegment, ptr %3, i32 0, i32 1
  %5 = load i64, ptr %4, align 8
  %6 = getelementptr inbounds %class.XPhysicalMemorySegment, ptr %3, i32 0, i32 0
  %7 = load i64, ptr %6, align 8
  %8 = sub i64 %5, %7
  ret i64 %8
}

; Function Attrs: mustprogress nounwind uwtable
define linkonce_odr hidden noundef nonnull align 8 dereferenceable(17) ptr @_ZNK15XPhysicalMemory7segmentEi(ptr noundef nonnull align 8 dereferenceable(16) %0, i32 noundef %1) #1 comdat align 2 {
  %3 = alloca ptr, align 8
  %4 = alloca i32, align 4
  store ptr %0, ptr %3, align 8
  store i32 %1, ptr %4, align 4
  %5 = load ptr, ptr %3, align 8
  %6 = getelementptr inbounds %class.XPhysicalMemory, ptr %5, i32 0, i32 0
  %7 = load i32, ptr %4, align 4
  %8 = call noundef nonnull align 8 dereferenceable(17) ptr @_ZNK17GrowableArrayViewI22XPhysicalMemorySegmentE2atEi(ptr noundef nonnull align 8 dereferenceable(16) %6, i32 noundef %7)
  ret ptr %8
}

; Function Attrs: mustprogress nounwind uwtable
define linkonce_odr hidden noundef i32 @_ZNK15XPhysicalMemory9nsegmentsEv(ptr noundef nonnull align 8 dereferenceable(16) %0) #1 comdat align 2 {
  %2 = alloca ptr, align 8
  store ptr %0, ptr %2, align 8
  %3 = load ptr, ptr %2, align 8
  %4 = getelementptr inbounds %class.XPhysicalMemory, ptr %3, i32 0, i32 0
  %5 = call noundef i32 @_ZNK17GrowableArrayBase6lengthEv(ptr noundef nonnull align 4 dereferenceable(8) %4)
  ret i32 %5
}

; Function Attrs: mustprogress nounwind uwtable
define hidden void @_ZNK22XPhysicalMemoryManager8map_viewEmRK15XPhysicalMemory(ptr noundef nonnull align 8 dereferenceable(160) %0, i64 noundef %1, ptr noundef nonnull align 8 dereferenceable(16) %2) #1 align 2 {
  %4 = alloca ptr, align 8
  %5 = alloca i64, align 8
  %6 = alloca ptr, align 8
  %7 = alloca i64, align 8
  %8 = alloca i32, align 4
  %9 = alloca ptr, align 8
  store ptr %0, ptr %4, align 8
  store i64 %1, ptr %5, align 8
  store ptr %2, ptr %6, align 8
  %10 = load ptr, ptr %4, align 8
  store i64 0, ptr %7, align 8
  store i32 0, ptr %8, align 4
  br label %11

11:                                               ; preds = %32, %3
  %12 = load i32, ptr %8, align 4
  %13 = load ptr, ptr %6, align 8
  %14 = call noundef i32 @_ZNK15XPhysicalMemory9nsegmentsEv(ptr noundef nonnull align 8 dereferenceable(16) %13)
  %15 = icmp slt i32 %12, %14
  br i1 %15, label %16, label %35

16:                                               ; preds = %11
  %17 = load ptr, ptr %6, align 8
  %18 = load i32, ptr %8, align 4
  %19 = call noundef nonnull align 8 dereferenceable(17) ptr @_ZNK15XPhysicalMemory7segmentEi(ptr noundef nonnull align 8 dereferenceable(16) %17, i32 noundef %18)
  store ptr %19, ptr %9, align 8
  %20 = getelementptr inbounds %class.XPhysicalMemoryManager, ptr %10, i32 0, i32 0
  %21 = load i64, ptr %5, align 8
  %22 = load i64, ptr %7, align 8
  %23 = add i64 %21, %22
  %24 = load ptr, ptr %9, align 8
  %25 = call noundef i64 @_ZNK22XPhysicalMemorySegment4sizeEv(ptr noundef nonnull align 8 dereferenceable(17) %24)
  %26 = load ptr, ptr %9, align 8
  %27 = call noundef i64 @_ZNK22XPhysicalMemorySegment5startEv(ptr noundef nonnull align 8 dereferenceable(17) %26)
  call void @_ZNK22XPhysicalMemoryBacking3mapEmmm(ptr noundef nonnull align 8 dereferenceable(41) %20, i64 noundef %23, i64 noundef %25, i64 noundef %27)
  %28 = load ptr, ptr %9, align 8
  %29 = call noundef i64 @_ZNK22XPhysicalMemorySegment4sizeEv(ptr noundef nonnull align 8 dereferenceable(17) %28)
  %30 = load i64, ptr %7, align 8
  %31 = add i64 %30, %29
  store i64 %31, ptr %7, align 8
  br label %32

32:                                               ; preds = %16
  %33 = load i32, ptr %8, align 4
  %34 = add nsw i32 %33, 1
  store i32 %34, ptr %8, align 4
  br label %11, !llvm.loop !18

35:                                               ; preds = %11
  %36 = call noundef zeroext i1 @_ZN5XNUMA10is_enabledEv()
  br i1 %36, label %37, label %43

37:                                               ; preds = %35
  %38 = call noundef zeroext i1 @_ZN11XLargePages11is_explicitEv()
  br i1 %38, label %39, label %43

39:                                               ; preds = %37
  %40 = load i64, ptr %5, align 8
  %41 = inttoptr i64 %40 to ptr
  %42 = load i64, ptr %7, align 8
  call void @_ZN2os16numa_make_globalEPcm(ptr noundef %41, i64 noundef %42)
  br label %43

43:                                               ; preds = %39, %37, %35
  ret void
}