; Function Attrs: mustprogress nounwind uwtable
define hidden void @_ZNK22XPhysicalMemoryManager8map_viewEmRK15XPhysicalMemory(ptr noundef nonnull align 8 dereferenceable(160) %0, i64 noundef %1, ptr nocapture noundef nonnull readonly align 8 dereferenceable(16) %2) local_unnamed_addr #1 align 2 {
  %4 = load i32, ptr %2, align 8
  %5 = icmp sgt i32 %4, 0
  br i1 %5, label %.lr.ph, label %._crit_edge

.lr.ph:                                           ; preds = %3
  %6 = getelementptr inbounds i8, ptr %2, i64 8
  br label %7

7:                                                ; preds = %.lr.ph, %7
  %indvars.iv = phi i64 [ 0, %.lr.ph ], [ %indvars.iv.next, %7 ]
  %.016 = phi i64 [ 0, %.lr.ph ], [ %18, %7 ]
  %8 = load ptr, ptr %6, align 8
  %9 = getelementptr inbounds %class.XPhysicalMemorySegment, ptr %8, i64 %indvars.iv
  %10 = add i64 %.016, %1
  %11 = getelementptr inbounds i8, ptr %9, i64 8
  %12 = load i64, ptr %11, align 8
  %13 = load i64, ptr %9, align 8
  %14 = sub i64 %12, %13
  tail call void @_ZNK22XPhysicalMemoryBacking3mapEmmm(ptr noundef nonnull align 8 dereferenceable(41) %0, i64 noundef %10, i64 noundef %14, i64 noundef %13) #13
  %15 = load i64, ptr %11, align 8
  %16 = load i64, ptr %9, align 8
  %17 = add i64 %15, %.016
  %18 = sub i64 %17, %16
  %indvars.iv.next = add nuw nsw i64 %indvars.iv, 1
  %19 = load i32, ptr %2, align 8
  %20 = sext i32 %19 to i64
  %21 = icmp slt i64 %indvars.iv.next, %20
  br i1 %21, label %7, label %._crit_edge, !llvm.loop !20

._crit_edge:                                      ; preds = %7, %3
  %.0.lcssa = phi i64 [ 0, %3 ], [ %18, %7 ]
  %22 = load i8, ptr @_ZN5XNUMA8_enabledE, align 1
  %23 = trunc i8 %22 to i1
  %24 = load i32, ptr @_ZN11XLargePages6_stateE, align 4
  %25 = icmp eq i32 %24, 1
  %or.cond = select i1 %23, i1 %25, i1 false
  br i1 %or.cond, label %26, label %28

26:                                               ; preds = %._crit_edge
  %27 = inttoptr i64 %1 to ptr
  tail call void @_ZN2os16numa_make_globalEPcm(ptr noundef %27, i64 noundef %.0.lcssa) #13
  br label %28

28:                                               ; preds = %26, %._crit_edge
  ret void
}